#include <math.h>
#include <stdio.h>
#include <stdlib.h>
#include <string.h>
#define LEN 100
#define ASCII 100
#define MAX_N 100
#define MAX_N 100
#define L 100
#define MAX 100
#define ASC 100
#define null 0
#define Len 100
#define M 100
#define SUM 100
#define NUMBER 100
#define SIZE 100
#define N 100
#define Max 100
#define X 100
#define Y 100
#define A 100
#define MAXN 100
#define MAXSIZE 100
	struct student
	{
		char num[100];
		struct student *next;
	};
	int n;

	struct student *creat(void)
	{
		struct student *head;
		struct student *p1,*p2;
		n=0;
		p1=p2=(struct student*)malloc(LEN);
		gets(p1->num);
		head=NULL;
		while(strcmp(p1->num,"end"))
		{
			n++;
			p1->next=head;
			head=p1;
			p1=(struct student*)malloc(LEN);
gets(p1->num);
		}
		p1->next=NULL;
		return(head);
	}

	void print(struct student *head)
	{
		struct student *p;
		p=head;
		if(head)
			do
			{
				puts(p->num);
				p=p->next;
			}
			while(p);
	}

	void main()
	{
		struct student *head;
		head=creat();
		print(head);
	}
